; Function Attrs: cold mustprogress noreturn uwtable
define hidden noalias noundef nonnull ptr @_Z27array_ref_to_ArrayLLVMValueRKN4lean9array_refIP11lean_objectEE(ptr noundef nonnull readnone align 1 captures(none) %0) local_unnamed_addr #1 personality ptr @__gxx_personality_v0 {
  tail call void @_ZN4lean26notify_assertion_violationEPKciS1_(ptr noundef nonnull @.str, i32 noundef 213, ptr noundef nonnull @.str.1)
  %2 = tail call ptr @__cxa_allocate_exception(i64 40) #11
  %3 = getelementptr inbounds nuw i8, ptr %2, i64 8
  %4 = getelementptr inbounds nuw i8, ptr %2, i64 24
  store ptr %4, ptr %3, align 8, !tbaa !10
  %5 = getelementptr inbounds nuw i8, ptr %2, i64 16
  store i64 0, ptr %5, align 8, !tbaa !13
  store i8 0, ptr %4, align 1, !tbaa !16
  store ptr getelementptr inbounds nuw inrange(-16, 24) (i8, ptr @_ZTVN4lean19unreachable_reachedE, i64 16), ptr %2, align 8, !tbaa !17
  tail call void @__cxa_throw(ptr nonnull %2, ptr nonnull @_ZTIN4lean19unreachable_reachedE, ptr nonnull @_ZN4lean9throwableD2Ev) #12
  unreachable
}